target datalayout = "e-m:e-p270:32:32-p271:32:32-p272:64:64-i64:64-i128:128-f80:128-n8:16:32:64-S128"
target triple = "x86_64-pc-linux-gnu"

%"struct.llvm::AnalysisKey" = type { [8 x i8] }
%"class.llvm::LazyValueInfo" = type { ptr, ptr, ptr }
%"class.llvm::SmallVectorBase" = type { ptr, i32, i32 }
%"class.llvm::AssumptionCache" = type <{ ptr, ptr, %"class.llvm::SmallVector.74", %"class.llvm::DenseMap.79", i8, [7 x i8] }>
%"class.llvm::SmallVector.74" = type { %"class.llvm::SmallVectorImpl.75", %"struct.llvm::SmallVectorStorage.78" }
%"class.llvm::SmallVectorImpl.75" = type { %"class.llvm::SmallVectorTemplateBase.76" }
%"class.llvm::SmallVectorTemplateBase.76" = type { %"class.llvm::SmallVectorTemplateCommon.77" }
%"class.llvm::SmallVectorTemplateCommon.77" = type { %"class.llvm::SmallVectorBase" }
%"struct.llvm::SmallVectorStorage.78" = type { [128 x i8] }
%"class.llvm::DenseMap.79" = type <{ ptr, i32, i32, i32, [4 x i8] }>
%"struct.llvm::detail::AnalysisResultModel" = type { %"struct.llvm::detail::AnalysisResultConcept", %"class.llvm::AssumptionCache" }
%"struct.llvm::detail::AnalysisResultConcept" = type { ptr }

@_ZN4llvm18AssumptionAnalysis3KeyE = external global %"struct.llvm::AnalysisKey", align 8

; Function Attrs: mustprogress nounwind uwtable
define linkonce_odr hidden noundef ptr @_ZN4llvm17AnalysisInfoMixinINS_18AssumptionAnalysisEE2IDEv() #0 comdat align 2 {
  ret ptr @_ZN4llvm18AssumptionAnalysis3KeyE
}

; Function Attrs: mustprogress nounwind uwtable
define linkonce_odr hidden void @_ZN4llvm13LazyValueInfoC2EPNS_15AssumptionCacheEPKNS_10DataLayoutE(ptr noundef nonnull align 8 dereferenceable(24) %0, ptr noundef %1, ptr noundef %2) unnamed_addr #0 comdat align 2 {
  %4 = alloca ptr, align 8
  %5 = alloca ptr, align 8
  %6 = alloca ptr, align 8
  store ptr %0, ptr %4, align 8
  store ptr %1, ptr %5, align 8
  store ptr %2, ptr %6, align 8
  %7 = load ptr, ptr %4, align 8
  %8 = getelementptr inbounds nuw %"class.llvm::LazyValueInfo", ptr %7, i32 0, i32 0
  %9 = load ptr, ptr %5, align 8
  store ptr %9, ptr %8, align 8
  %10 = getelementptr inbounds nuw %"class.llvm::LazyValueInfo", ptr %7, i32 0, i32 1
  %11 = load ptr, ptr %6, align 8
  store ptr %11, ptr %10, align 8
  %12 = getelementptr inbounds nuw %"class.llvm::LazyValueInfo", ptr %7, i32 0, i32 2
  store ptr null, ptr %12, align 8
  ret void
}

; Function Attrs: mustprogress nounwind uwtable
define linkonce_odr hidden noundef nonnull align 8 dereferenceable(185) ptr @_ZN4llvm15AnalysisManagerINS_8FunctionEJEE9getResultINS_18AssumptionAnalysisEEERNT_6ResultERS1_(ptr noundef nonnull align 8 dereferenceable(72) %0, ptr noundef nonnull align 8 dereferenceable(136) %1) #0 comdat align 2 {
  %3 = alloca ptr, align 8
  %4 = alloca ptr, align 8
  %5 = alloca ptr, align 8
  store ptr %0, ptr %3, align 8
  store ptr %1, ptr %4, align 8
  %6 = load ptr, ptr %3, align 8
  %7 = call noundef ptr @_ZN4llvm17AnalysisInfoMixinINS_18AssumptionAnalysisEE2IDEv()
  %8 = load ptr, ptr %4, align 8
  %9 = call noundef nonnull align 8 dereferenceable(8) ptr @_ZN4llvm15AnalysisManagerINS_8FunctionEJEE13getResultImplEPNS_11AnalysisKeyERS1_(ptr noundef nonnull align 8 dereferenceable(72) %6, ptr noundef %7, ptr noundef nonnull align 8 dereferenceable(136) %8)
  store ptr %9, ptr %5, align 8
  %10 = load ptr, ptr %5, align 8
  %11 = getelementptr inbounds nuw %"struct.llvm::detail::AnalysisResultModel", ptr %10, i32 0, i32 1
  ret ptr %11
}

; Function Attrs: mustprogress nounwind uwtable
define dso_local void @_ZN4llvm17LazyValueAnalysis3runERNS_8FunctionERNS_15AnalysisManagerIS1_JEEE(ptr dead_on_unwind noalias writable sret(%"class.llvm::LazyValueInfo") align 8 %0, ptr noundef nonnull align 1 dereferenceable(1) %1, ptr noundef nonnull align 8 dereferenceable(136) %2, ptr noundef nonnull align 8 dereferenceable(72) %3) #0 align 2 {
  %5 = alloca ptr, align 8
  %6 = alloca ptr, align 8
  %7 = alloca ptr, align 8
  %8 = alloca ptr, align 8
  %9 = alloca ptr, align 8
  store ptr %0, ptr %5, align 8
  store ptr %1, ptr %6, align 8
  store ptr %2, ptr %7, align 8
  store ptr %3, ptr %8, align 8
  %10 = load ptr, ptr %8, align 8
  %11 = load ptr, ptr %7, align 8
  %12 = call noundef nonnull align 8 dereferenceable(185) ptr @_ZN4llvm15AnalysisManagerINS_8FunctionEJEE9getResultINS_18AssumptionAnalysisEEERNT_6ResultERS1_(ptr noundef nonnull align 8 dereferenceable(72) %10, ptr noundef nonnull align 8 dereferenceable(136) %11)
  store ptr %12, ptr %9, align 8
  %13 = load ptr, ptr %9, align 8
  %14 = load ptr, ptr %7, align 8
  %15 = call noundef nonnull align 8 dereferenceable(512) ptr @_ZNK4llvm8Function13getDataLayoutEv(ptr noundef nonnull align 8 dereferenceable(136) %14)
  call void @_ZN4llvm13LazyValueInfoC2EPNS_15AssumptionCacheEPKNS_10DataLayoutE(ptr noundef nonnull align 8 dereferenceable(24) %0, ptr noundef %13, ptr noundef %15)
  ret void
}