; Function Attrs: mustprogress nounwind uwtable
define dso_local void @_ZN4llvm17LazyValueAnalysis3runERNS_8FunctionERNS_15AnalysisManagerIS1_JEEE(ptr dead_on_unwind noalias nocapture writable writeonly sret(%"class.llvm::LazyValueInfo") align 8 %0, ptr nocapture noundef nonnull readnone align 1 dereferenceable(1) %1, ptr noundef nonnull align 8 dereferenceable(136) %2, ptr noundef nonnull align 8 dereferenceable(72) %3) local_unnamed_addr #0 align 2 {
  %5 = tail call noundef nonnull align 8 dereferenceable(8) ptr @_ZN4llvm15AnalysisManagerINS_8FunctionEJEE13getResultImplEPNS_11AnalysisKeyERS1_(ptr noundef nonnull align 8 dereferenceable(72) %3, ptr noundef nonnull @_ZN4llvm18AssumptionAnalysis3KeyE, ptr noundef nonnull align 8 dereferenceable(136) %2) #19
  %6 = getelementptr inbounds nuw i8, ptr %5, i64 8
  %7 = tail call noundef nonnull align 8 dereferenceable(512) ptr @_ZNK4llvm8Function13getDataLayoutEv(ptr noundef nonnull align 8 dereferenceable(136) %2) #19
  store ptr %6, ptr %0, align 8
  %8 = getelementptr inbounds nuw i8, ptr %0, i64 8
  store ptr %7, ptr %8, align 8
  %9 = getelementptr inbounds nuw i8, ptr %0, i64 16
  store ptr null, ptr %9, align 8
  ret void
}